target datalayout = "e-m:e-p270:32:32-p271:32:32-p272:64:64-i64:64-i128:128-f80:128-n8:16:32:64-S128"
target triple = "x86_64-pc-linux-gnu"

%struct.object_id = type { [32 x i8], i32 }
%struct.treeent = type { i32, %struct.object_id, i32, [0 x i8] }

; Function Attrs: nounwind uwtable
define internal i32 @ent_compare(ptr noundef %0, ptr noundef %1) #0 {
  %3 = alloca ptr, align 8
  %4 = alloca ptr, align 8
  %5 = alloca ptr, align 8
  %6 = alloca ptr, align 8
  store ptr %0, ptr %3, align 8, !tbaa !29
  store ptr %1, ptr %4, align 8, !tbaa !29
  call void @llvm.lifetime.start.p0(i64 8, ptr %5) #9
  %7 = load ptr, ptr %3, align 8, !tbaa !29
  %8 = load ptr, ptr %7, align 8, !tbaa !46
  store ptr %8, ptr %5, align 8, !tbaa !46
  call void @llvm.lifetime.start.p0(i64 8, ptr %6) #9
  %9 = load ptr, ptr %4, align 8, !tbaa !29
  %10 = load ptr, ptr %9, align 8, !tbaa !46
  store ptr %10, ptr %6, align 8, !tbaa !46
  %11 = load ptr, ptr %5, align 8, !tbaa !46
  %12 = getelementptr inbounds nuw %struct.treeent, ptr %11, i32 0, i32 3
  %13 = getelementptr inbounds [0 x i8], ptr %12, i64 0, i64 0
  %14 = load ptr, ptr %5, align 8, !tbaa !46
  %15 = getelementptr inbounds nuw %struct.treeent, ptr %14, i32 0, i32 2
  %16 = load i32, ptr %15, align 4, !tbaa !4
  %17 = sext i32 %16 to i64
  %18 = load ptr, ptr %5, align 8, !tbaa !46
  %19 = getelementptr inbounds nuw %struct.treeent, ptr %18, i32 0, i32 0
  %20 = load i32, ptr %19, align 4, !tbaa !4
  %21 = load ptr, ptr %6, align 8, !tbaa !46
  %22 = getelementptr inbounds nuw %struct.treeent, ptr %21, i32 0, i32 3
  %23 = getelementptr inbounds [0 x i8], ptr %22, i64 0, i64 0
  %24 = load ptr, ptr %6, align 8, !tbaa !46
  %25 = getelementptr inbounds nuw %struct.treeent, ptr %24, i32 0, i32 2
  %26 = load i32, ptr %25, align 4, !tbaa !4
  %27 = sext i32 %26 to i64
  %28 = load ptr, ptr %6, align 8, !tbaa !46
  %29 = getelementptr inbounds nuw %struct.treeent, ptr %28, i32 0, i32 0
  %30 = load i32, ptr %29, align 4, !tbaa !4
  %31 = call i32 @base_name_compare(ptr noundef %13, i64 noundef %17, i32 noundef %20, ptr noundef %23, i64 noundef %27, i32 noundef %30)
  call void @llvm.lifetime.end.p0(i64 8, ptr %6) #9
  call void @llvm.lifetime.end.p0(i64 8, ptr %5) #9
  ret i32 %31
}