; Function Attrs: nounwind uwtable
define internal i32 @ent_compare(ptr noundef readonly captures(none) %0, ptr noundef readonly captures(none) %1) #0 {
  %3 = load ptr, ptr %0, align 8, !tbaa !39
  %4 = load ptr, ptr %1, align 8, !tbaa !39
  %5 = getelementptr inbounds nuw i8, ptr %3, i64 44
  %6 = getelementptr inbounds nuw i8, ptr %3, i64 40
  %7 = load i32, ptr %6, align 4, !tbaa !4
  %8 = sext i32 %7 to i64
  %9 = load i32, ptr %3, align 4, !tbaa !4
  %10 = getelementptr inbounds nuw i8, ptr %4, i64 44
  %11 = getelementptr inbounds nuw i8, ptr %4, i64 40
  %12 = load i32, ptr %11, align 4, !tbaa !4
  %13 = sext i32 %12 to i64
  %14 = load i32, ptr %4, align 4, !tbaa !4
  %15 = tail call i32 @base_name_compare(ptr noundef nonnull %5, i64 noundef %8, i32 noundef %9, ptr noundef nonnull %10, i64 noundef %13, i32 noundef %14) #11
  ret i32 %15
}